; Function Attrs: mustprogress uwtable
define void @_ZN4YAML8LoadFileERKNSt7__cxx1112basic_stringIcSt11char_traitsIcESaIcEEE(ptr dead_on_unwind noalias writable sret(%"class.YAML::Node") align 8 %0, ptr noundef nonnull align 8 dereferenceable(32) %1) local_unnamed_addr #0 personality ptr @__gxx_personality_v0 {
  %3 = alloca %"class.std::basic_ifstream", align 8
  call void @llvm.lifetime.start.p0(i64 520, ptr nonnull %3) #20
  call void @_ZNSt14basic_ifstreamIcSt11char_traitsIcEEC1ERKNSt7__cxx1112basic_stringIcS1_SaIcEEESt13_Ios_Openmode(ptr noundef nonnull align 8 dereferenceable(256) %3, ptr noundef nonnull align 8 dereferenceable(32) %1, i32 noundef 8)
  %4 = load ptr, ptr %3, align 8, !tbaa !3
  %5 = getelementptr i8, ptr %4, i64 -24
  %6 = load i64, ptr %5, align 8
  %7 = getelementptr inbounds i8, ptr %3, i64 %6
  %8 = getelementptr inbounds nuw i8, ptr %7, i64 32
  %9 = load i32, ptr %8, align 8, !tbaa !28
  %10 = and i32 %9, 5
  %.not = icmp eq i32 %10, 0
  br i1 %.not, label %18, label %11

11:                                               ; preds = %2
  %12 = call ptr @__cxa_allocate_exception(i64 64) #20
  invoke void @_ZN4YAML7BadFileC2ERKNSt7__cxx1112basic_stringIcSt11char_traitsIcESaIcEEE(ptr noundef nonnull align 8 dereferenceable(64) %12, ptr noundef nonnull align 8 dereferenceable(32) %1)
          to label %13 unwind label %16

13:                                               ; preds = %11
  invoke void @__cxa_throw(ptr nonnull %12, ptr nonnull @_ZTIN4YAML7BadFileE, ptr nonnull @_ZN4YAML7BadFileD1Ev) #22
          to label %34 unwind label %14

14:                                               ; preds = %18, %13
  %15 = landingpad { ptr, i32 }
          cleanup
  br label %33

16:                                               ; preds = %11
  %17 = landingpad { ptr, i32 }
          cleanup
  call void @__cxa_free_exception(ptr nonnull %12) #20
  br label %33

18:                                               ; preds = %2
  invoke void @_ZN4YAML4LoadERSi(ptr dead_on_unwind writable sret(%"class.YAML::Node") align 8 %0, ptr noundef nonnull align 8 dereferenceable(16) %3)
          to label %19 unwind label %14

19:                                               ; preds = %18
  %20 = load ptr, ptr @_ZTTSt14basic_ifstreamIcSt11char_traitsIcEE, align 8
  store ptr %20, ptr %3, align 8, !tbaa !3
  %21 = load ptr, ptr getelementptr inbounds nuw (i8, ptr @_ZTTSt14basic_ifstreamIcSt11char_traitsIcEE, i64 24), align 8
  %22 = getelementptr i8, ptr %20, i64 -24
  %23 = load i64, ptr %22, align 8
  %24 = getelementptr inbounds i8, ptr %3, i64 %23
  store ptr %21, ptr %24, align 8, !tbaa !3
  %25 = getelementptr inbounds nuw i8, ptr %3, i64 16
  call void @_ZNSt13basic_filebufIcSt11char_traitsIcEED2Ev(ptr noundef nonnull align 8 dereferenceable(240) %25) #20
  %26 = load ptr, ptr getelementptr inbounds nuw (i8, ptr @_ZTTSt14basic_ifstreamIcSt11char_traitsIcEE, i64 8), align 8
  store ptr %26, ptr %3, align 8, !tbaa !3
  %27 = load ptr, ptr getelementptr inbounds nuw (i8, ptr @_ZTTSt14basic_ifstreamIcSt11char_traitsIcEE, i64 16), align 8
  %28 = getelementptr i8, ptr %26, i64 -24
  %29 = load i64, ptr %28, align 8
  %30 = getelementptr inbounds i8, ptr %3, i64 %29
  store ptr %27, ptr %30, align 8, !tbaa !3
  %31 = getelementptr inbounds nuw i8, ptr %3, i64 8
  store i64 0, ptr %31, align 8, !tbaa !14
  %32 = getelementptr inbounds nuw i8, ptr %3, i64 256
  call void @_ZNSt8ios_baseD2Ev(ptr noundef nonnull align 8 dereferenceable(264) %32) #20
  call void @llvm.lifetime.end.p0(i64 520, ptr nonnull %3) #20
  ret void

33:                                               ; preds = %16, %14
  %.pn = phi { ptr, i32 } [ %15, %14 ], [ %17, %16 ]
  call void @_ZNSt14basic_ifstreamIcSt11char_traitsIcEED1Ev(ptr noundef nonnull align 8 dereferenceable(256) %3) #20
  call void @llvm.lifetime.end.p0(i64 520, ptr nonnull %3) #20
  resume { ptr, i32 } %.pn

34:                                               ; preds = %13
  unreachable
}